; Function Attrs: mustprogress uwtable
define hidden noundef ptr @_ZNK19smt2_pp_environment8mk_floatERK8rational(ptr noundef nonnull align 8 dereferenceable(56) %this, ptr noundef nonnull align 8 dereferenceable(32) %val) local_unnamed_addr #3 align 2 personality ptr @__gxx_personality_v0 {
entry:
  %s = alloca %"class.std::__cxx11::basic_string", align 8
  %ref.tmp = alloca %"class.std::__cxx11::basic_string", align 8
  %0 = load ptr, ptr @_ZN8rational13g_mpq_managerE, align 8, !noalias !41
  call void @_ZNK11mpq_managerILb1EE9to_stringB5cxx11ERK3mpq(ptr nonnull sret(%"class.std::__cxx11::basic_string") align 8 %ref.tmp, ptr noundef nonnull align 8 dereferenceable(728) %0, ptr noundef nonnull align 8 dereferenceable(32) %val)
  %call.i2 = invoke noundef nonnull align 8 dereferenceable(32) ptr @_ZNSt7__cxx1112basic_stringIcSt11char_traitsIcESaIcEE6appendEPKc(ptr noundef nonnull align 8 dereferenceable(32) %ref.tmp, ptr noundef nonnull @.str.23)
          to label %invoke.cont unwind label %lpad

invoke.cont:                                      ; preds = %entry
  call void @_ZNSt7__cxx1112basic_stringIcSt11char_traitsIcESaIcEEC1EOS4_(ptr noundef nonnull align 8 dereferenceable(32) %s, ptr noundef nonnull align 8 dereferenceable(32) %call.i2) #19
  call void @_ZNSt7__cxx1112basic_stringIcSt11char_traitsIcESaIcEED1Ev(ptr noundef nonnull align 8 dereferenceable(32) %ref.tmp) #19
  %vtable = load ptr, ptr %this, align 8
  %vfn = getelementptr inbounds i8, ptr %vtable, i64 16
  %1 = load ptr, ptr %vfn, align 8
  %call = invoke noundef nonnull align 8 dereferenceable(976) ptr %1(ptr noundef nonnull align 8 dereferenceable(56) %this)
          to label %invoke.cont3 unwind label %lpad2

invoke.cont3:                                     ; preds = %invoke.cont
  %call.i = call noundef ptr @_ZNKSt7__cxx1112basic_stringIcSt11char_traitsIcESaIcEE5c_strEv(ptr noundef nonnull align 8 dereferenceable(32) %s) #19
  %call1.i3 = invoke noundef ptr @_ZN9format_ns9mk_stringER11ast_managerPKc(ptr noundef nonnull align 8 dereferenceable(976) %call, ptr noundef %call.i)
          to label %invoke.cont4 unwind label %lpad2

invoke.cont4:                                     ; preds = %invoke.cont3
  call void @_ZNSt7__cxx1112basic_stringIcSt11char_traitsIcESaIcEED1Ev(ptr noundef nonnull align 8 dereferenceable(32) %s) #19
  ret ptr %call1.i3

lpad:                                             ; preds = %entry
  %2 = landingpad { ptr, i32 }
          cleanup
  br label %eh.resume

lpad2:                                            ; preds = %invoke.cont3, %invoke.cont
  %3 = landingpad { ptr, i32 }
          cleanup
  br label %eh.resume

eh.resume:                                        ; preds = %lpad2, %lpad
  %s.sink = phi ptr [ %s, %lpad2 ], [ %ref.tmp, %lpad ]
  %.pn = phi { ptr, i32 } [ %3, %lpad2 ], [ %2, %lpad ]
  call void @_ZNSt7__cxx1112basic_stringIcSt11char_traitsIcESaIcEED1Ev(ptr noundef nonnull align 8 dereferenceable(32) %s.sink) #19
  resume { ptr, i32 } %.pn
}